target datalayout = "e-m:e-p270:32:32-p271:32:32-p272:64:64-i64:64-i128:128-f80:128-n8:16:32:64-S128"
target triple = "x86_64-pc-linux-gnu"

%"class.std::vector.107" = type { %"struct.std::_Vector_base.108" }
%"struct.std::_Vector_base.108" = type { %"struct.std::_Vector_base<float, std::allocator<float>>::_Vector_impl" }
%"struct.std::_Vector_base<float, std::allocator<float>>::_Vector_impl" = type { %"struct.std::_Vector_base<float, std::allocator<float>>::_Vector_impl_data" }
%"struct.std::_Vector_base<float, std::allocator<float>>::_Vector_impl_data" = type { ptr, ptr, ptr }
%"class.std::reference_wrapper" = type { ptr }
%"class.gmx::ArrayRef" = type { %"struct.gmx::ArrayRefIter", %"struct.gmx::ArrayRefIter" }
%"struct.gmx::ArrayRefIter" = type { ptr }
%struct.t_oriresdata = type { float, float, float, float, i32, i32, i32, %"class.gmx::LocalAtomSet", %"class.std::vector.112", %"class.std::vector.107", %"class.std::vector.112", %"class.std::optional", %"class.gmx::ArrayRef", [3 x [3 x float]], ptr, ptr, ptr, ptr, %"class.std::vector.107", %"class.gmx::ArrayRef", %"class.std::vector.107", %"class.gmx::ArrayRef", %"class.std::vector.107", float, %"class.std::vector.117", %"class.std::vector.107", %"struct.std::array", %"struct.std::array.122", %"struct.std::array" }
%"class.gmx::LocalAtomSet" = type { ptr }
%"class.std::vector.112" = type { %"struct.std::_Vector_base.113" }
%"struct.std::_Vector_base.113" = type { %"struct.std::_Vector_base<gmx::BasicVector<float>, std::allocator<gmx::BasicVector<float>>>::_Vector_impl" }
%"struct.std::_Vector_base<gmx::BasicVector<float>, std::allocator<gmx::BasicVector<float>>>::_Vector_impl" = type { %"struct.std::_Vector_base<gmx::BasicVector<float>, std::allocator<gmx::BasicVector<float>>>::_Vector_impl_data" }
%"struct.std::_Vector_base<gmx::BasicVector<float>, std::allocator<gmx::BasicVector<float>>>::_Vector_impl_data" = type { ptr, ptr, ptr }
%"class.std::optional" = type { %"struct.std::_Optional_base" }
%"struct.std::_Optional_base" = type { %"struct.std::_Optional_payload" }
%"struct.std::_Optional_payload" = type { %"struct.std::_Optional_payload_base.base", [7 x i8] }
%"struct.std::_Optional_payload_base.base" = type <{ %"union.std::_Optional_payload_base<std::reference_wrapper<float>>::_Storage", i8 }>
%"union.std::_Optional_payload_base<std::reference_wrapper<float>>::_Storage" = type { %"class.std::reference_wrapper" }
%"class.std::vector.117" = type { %"struct.std::_Vector_base.118" }
%"struct.std::_Vector_base.118" = type { %"struct.std::_Vector_base<OriresMatEq, std::allocator<OriresMatEq>>::_Vector_impl" }
%"struct.std::_Vector_base<OriresMatEq, std::allocator<OriresMatEq>>::_Vector_impl" = type { %"struct.std::_Vector_base<OriresMatEq, std::allocator<OriresMatEq>>::_Vector_impl_data" }
%"struct.std::_Vector_base<OriresMatEq, std::allocator<OriresMatEq>>::_Vector_impl_data" = type { ptr, ptr, ptr }
%"struct.std::array.122" = type { [3 x double] }
%"struct.std::array" = type { [3 x %"class.gmx::BasicVector"] }
%"class.gmx::BasicVector" = type { [3 x double] }

@.str.27 = private unnamed_addr constant [30 x i8] c"  Orientation experiment %d:\0A\00", align 1
@.str.28 = private unnamed_addr constant [25 x i8] c"    order parameter: %g\0A\00", align 1
@.str.29 = private unnamed_addr constant [36 x i8] c"    eig: %6.3f   %6.3f %6.3f %6.3f\0A\00", align 1
@.str.30 = private unnamed_addr constant [2 x i8] c"\0A\00", align 1

; Function Attrs: mustprogress nounwind uwtable
define linkonce_odr noundef ptr @_ZNKSt6vectorIfSaIfEE11_M_data_ptrIfEEPT_S4_(ptr noundef nonnull align 8 dereferenceable(24) %0, ptr noundef %1) #3 comdat align 2 {
  %3 = alloca ptr, align 8
  %4 = alloca ptr, align 8
  store ptr %0, ptr %3, align 8
  store ptr %1, ptr %4, align 8
  %5 = load ptr, ptr %4, align 8
  ret ptr %5
}

; Function Attrs: mustprogress nounwind uwtable
define linkonce_odr noundef ptr @_ZNSt6vectorIfSaIfEE4dataEv(ptr noundef nonnull align 8 dereferenceable(24) %0) #3 comdat align 2 {
  %2 = alloca ptr, align 8
  store ptr %0, ptr %2, align 8
  %3 = load ptr, ptr %2, align 8
  %4 = getelementptr inbounds %"struct.std::_Vector_base.108", ptr %3, i32 0, i32 0
  %5 = getelementptr inbounds %"struct.std::_Vector_base<float, std::allocator<float>>::_Vector_impl_data", ptr %4, i32 0, i32 0
  %6 = load ptr, ptr %5, align 8
  %7 = call noundef ptr @_ZNKSt6vectorIfSaIfEE11_M_data_ptrIfEEPT_S4_(ptr noundef nonnull align 8 dereferenceable(24) %3, ptr noundef %6) #15
  ret ptr %7
}

; Function Attrs: mustprogress uwtable
define void @_Z16print_orires_logP8_IO_FILEP12t_oriresdata(ptr noundef %0, ptr noundef %1) #0 {
  %3 = alloca ptr, align 8
  %4 = alloca ptr, align 8
  %5 = alloca i32, align 4
  %6 = alloca ptr, align 8
  %7 = alloca i32, align 4
  store ptr %0, ptr %3, align 8
  store ptr %1, ptr %4, align 8
  %8 = load ptr, ptr %4, align 8
  call void @_Z26diagonalize_orires_tensorsP12t_oriresdata(ptr noundef %8)
  store i32 0, ptr %5, align 4
  br label %9

9:                                                ; preds = %95, %2
  %10 = load i32, ptr %5, align 4
  %11 = load ptr, ptr %4, align 8
  %12 = getelementptr inbounds %struct.t_oriresdata, ptr %11, i32 0, i32 5
  %13 = load i32, ptr %12, align 4
  %14 = icmp slt i32 %10, %13
  br i1 %14, label %15, label %98

15:                                               ; preds = %9
  %16 = load ptr, ptr %4, align 8
  %17 = getelementptr inbounds %struct.t_oriresdata, ptr %16, i32 0, i32 25
  %18 = call noundef ptr @_ZNSt6vectorIfSaIfEE4dataEv(ptr noundef nonnull align 8 dereferenceable(24) %17) #15
  %19 = load i32, ptr %5, align 4
  %20 = mul nsw i32 %19, 12
  %21 = sext i32 %20 to i64
  %22 = getelementptr inbounds float, ptr %18, i64 %21
  store ptr %22, ptr %6, align 8
  %23 = load ptr, ptr %3, align 8
  %24 = load i32, ptr %5, align 4
  %25 = add nsw i32 %24, 1
  %26 = call i32 (ptr, ptr, ...) @fprintf(ptr noundef %23, ptr noundef @.str.27, i32 noundef %25) #15
  %27 = load ptr, ptr %3, align 8
  %28 = load ptr, ptr %6, align 8
  %29 = getelementptr inbounds float, ptr %28, i64 0
  %30 = load float, ptr %29, align 4
  %31 = fpext float %30 to double
  %32 = call i32 (ptr, ptr, ...) @fprintf(ptr noundef %27, ptr noundef @.str.28, double noundef %31) #15
  store i32 0, ptr %7, align 4
  br label %33

33:                                               ; preds = %89, %15
  %34 = load i32, ptr %7, align 4
  %35 = icmp slt i32 %34, 3
  br i1 %35, label %36, label %92

36:                                               ; preds = %33
  %37 = load ptr, ptr %3, align 8
  %38 = load ptr, ptr %6, align 8
  %39 = getelementptr inbounds float, ptr %38, i64 0
  %40 = load float, ptr %39, align 4
  %41 = fcmp une float %40, 0.000000e+00
  br i1 %41, label %42, label %52

42:                                               ; preds = %36
  %43 = load ptr, ptr %6, align 8
  %44 = load i32, ptr %7, align 4
  %45 = sext i32 %44 to i64
  %46 = getelementptr inbounds float, ptr %43, i64 %45
  %47 = load float, ptr %46, align 4
  %48 = load ptr, ptr %6, align 8
  %49 = getelementptr inbounds float, ptr %48, i64 0
  %50 = load float, ptr %49, align 4
  %51 = fdiv float %47, %50
  br label %58

52:                                               ; preds = %36
  %53 = load ptr, ptr %6, align 8
  %54 = load i32, ptr %7, align 4
  %55 = sext i32 %54 to i64
  %56 = getelementptr inbounds float, ptr %53, i64 %55
  %57 = load float, ptr %56, align 4
  br label %58

58:                                               ; preds = %52, %42
  %59 = phi float [ %51, %42 ], [ %57, %52 ]
  %60 = fpext float %59 to double
  %61 = load ptr, ptr %6, align 8
  %62 = load i32, ptr %7, align 4
  %63 = mul nsw i32 %62, 3
  %64 = add nsw i32 3, %63
  %65 = add nsw i32 %64, 0
  %66 = sext i32 %65 to i64
  %67 = getelementptr inbounds float, ptr %61, i64 %66
  %68 = load float, ptr %67, align 4
  %69 = fpext float %68 to double
  %70 = load ptr, ptr %6, align 8
  %71 = load i32, ptr %7, align 4
  %72 = mul nsw i32 %71, 3
  %73 = add nsw i32 3, %72
  %74 = add nsw i32 %73, 1
  %75 = sext i32 %74 to i64
  %76 = getelementptr inbounds float, ptr %70, i64 %75
  %77 = load float, ptr %76, align 4
  %78 = fpext float %77 to double
  %79 = load ptr, ptr %6, align 8
  %80 = load i32, ptr %7, align 4
  %81 = mul nsw i32 %80, 3
  %82 = add nsw i32 3, %81
  %83 = add nsw i32 %82, 2
  %84 = sext i32 %83 to i64
  %85 = getelementptr inbounds float, ptr %79, i64 %84
  %86 = load float, ptr %85, align 4
  %87 = fpext float %86 to double
  %88 = call i32 (ptr, ptr, ...) @fprintf(ptr noundef %37, ptr noundef @.str.29, double noundef %60, double noundef %69, double noundef %78, double noundef %87) #15
  br label %89

89:                                               ; preds = %58
  %90 = load i32, ptr %7, align 4
  %91 = add nsw i32 %90, 1
  store i32 %91, ptr %7, align 4
  br label %33, !llvm.loop !25

92:                                               ; preds = %33
  %93 = load ptr, ptr %3, align 8
  %94 = call i32 (ptr, ptr, ...) @fprintf(ptr noundef %93, ptr noundef @.str.30) #15
  br label %95

95:                                               ; preds = %92
  %96 = load i32, ptr %5, align 4
  %97 = add nsw i32 %96, 1
  store i32 %97, ptr %5, align 4
  br label %9, !llvm.loop !26

98:                                               ; preds = %9
  ret void
}