; Function Attrs: mustprogress uwtable
define void @_Z16print_orires_logP8_IO_FILEP12t_oriresdata(ptr nocapture noundef %0, ptr noundef %1) local_unnamed_addr #0 {
  tail call void @_Z26diagonalize_orires_tensorsP12t_oriresdata(ptr noundef %1)
  %3 = getelementptr inbounds i8, ptr %1, i64 20
  %4 = load i32, ptr %3, align 4
  %5 = icmp sgt i32 %4, 0
  br i1 %5, label %.lr.ph, label %._crit_edge

.lr.ph:                                           ; preds = %2
  %6 = getelementptr inbounds i8, ptr %1, i64 352
  br label %7

7:                                                ; preds = %.lr.ph, %35
  %indvars.iv30 = phi i64 [ 0, %.lr.ph ], [ %indvars.iv.next31, %35 ]
  %8 = load ptr, ptr %6, align 8
  %9 = mul nuw nsw i64 %indvars.iv30, 12
  %10 = getelementptr inbounds float, ptr %8, i64 %9
  %indvars.iv.next31 = add nuw nsw i64 %indvars.iv30, 1
  %11 = trunc nuw nsw i64 %indvars.iv.next31 to i32
  %12 = tail call i32 (ptr, ptr, ...) @fprintf(ptr noundef %0, ptr noundef nonnull @.str.27, i32 noundef %11) #23
  %13 = load float, ptr %10, align 4
  %14 = fpext float %13 to double
  %15 = tail call i32 (ptr, ptr, ...) @fprintf(ptr noundef %0, ptr noundef nonnull @.str.28, double noundef %14) #23
  %invariant.gep = getelementptr i8, ptr %10, i64 12
  br label %16

16:                                               ; preds = %7, %16
  %indvars.iv = phi i64 [ 0, %7 ], [ %indvars.iv.next, %16 ]
  %17 = load float, ptr %10, align 4
  %18 = fcmp une float %17, 0.000000e+00
  %19 = getelementptr inbounds float, ptr %10, i64 %indvars.iv
  %20 = load float, ptr %19, align 4
  %21 = fdiv float %20, %17
  %22 = select i1 %18, float %21, float %20
  %23 = fpext float %22 to double
  %24 = mul nuw nsw i64 %indvars.iv, 3
  %gep = getelementptr float, ptr %invariant.gep, i64 %24
  %25 = load float, ptr %gep, align 4
  %26 = fpext float %25 to double
  %27 = getelementptr float, ptr %10, i64 %24
  %28 = getelementptr i8, ptr %27, i64 16
  %29 = load float, ptr %28, align 4
  %30 = fpext float %29 to double
  %31 = getelementptr i8, ptr %27, i64 20
  %32 = load float, ptr %31, align 4
  %33 = fpext float %32 to double
  %34 = tail call i32 (ptr, ptr, ...) @fprintf(ptr noundef %0, ptr noundef nonnull @.str.29, double noundef %23, double noundef %26, double noundef %30, double noundef %33) #23
  %indvars.iv.next = add nuw nsw i64 %indvars.iv, 1
  %exitcond.not = icmp eq i64 %indvars.iv.next, 3
  br i1 %exitcond.not, label %35, label %16, !llvm.loop !33

35:                                               ; preds = %16
  %fputc = tail call i32 @fputc(i32 10, ptr %0)
  %36 = load i32, ptr %3, align 4
  %37 = sext i32 %36 to i64
  %38 = icmp slt i64 %indvars.iv.next31, %37
  br i1 %38, label %7, label %._crit_edge, !llvm.loop !34

._crit_edge:                                      ; preds = %35, %2
  ret void
}